(dp1
S'QiQi'
p2
(i__main__
Persion
p3
(dp4
S'pinfo'
p5
(dp6
S'Phone'
p7
S'1234'
p8
ssS'pname'
p9
g2
sbsS'GFX'
p10
(i__main__
Persion
p11
(dp12
g5
(dp13
S'Email'
p14
S'abcdefg'
p15
ssg9
g10
sbsS'guofengxian'
p16
(i__main__
Persion
p17
(dp18
g5
(dp19
S'email'
p20
S'abcdefg'
p21
ssg9
g16
sbs.